; Function Attrs: fn_ret_thunk_extern nounwind null_pointer_is_valid
define internal noundef i32 @io_wq_cpu_offline(i32 noundef %0, ptr noundef %1) #0 align 16 {
  %3 = icmp eq ptr %1, null
  %4 = getelementptr i8, ptr %1, i64 -72
  %5 = select i1 %3, ptr null, ptr %4
  tail call void @__rcu_read_lock() #17
  %6 = getelementptr inbounds i8, ptr %5, i64 208
  %7 = load volatile ptr, ptr %6, align 8
  %8 = icmp eq ptr %7, %6
  br i1 %8, label %io_wq_for_each_worker.exit, label %.preheader6.i.preheader

.preheader6.i.preheader:                          ; preds = %2
  %9 = zext i32 %0 to i64
  br label %.preheader6.i

.preheader6.i:                                    ; preds = %.preheader6.i.preheader, %.thread5.i
  %10 = phi ptr [ %44, %.thread5.i ], [ %7, %.preheader6.i.preheader ]
  %11 = getelementptr i8, ptr %10, i64 -24
  %12 = load volatile i32, ptr %11, align 4
  %13 = icmp eq i32 %12, 0
  br i1 %13, label %.thread.i, label %.preheader.i

.preheader.i:                                     ; preds = %.preheader6.i, %19
  %14 = phi i32 [ %20, %19 ], [ %12, %.preheader6.i ]
  %15 = add i32 %14, 1
  %16 = tail call { i8, i32 } asm sideeffect ".pushsection .smp_locks,\22a\22\0A.balign 4\0A.long 671f - .\0A.popsection\0A671:\0A\09lock; cmpxchgl $3, $1\0A\09/* output condition code z*/\0A", "={@ccz},=*m,={ax},r,*m,2,~{memory},~{dirflag},~{fpsr},~{flags}"(ptr elementtype(i32) %11, i32 %15, ptr elementtype(i32) %11, i32 %14) #17, !srcloc !20
  %17 = extractvalue { i8, i32 } %16, 0
  %18 = icmp ult i8 %17, 2
  tail call void @llvm.assume(i1 %18)
  %.not.i = icmp eq i8 %17, 0
  br i1 %.not.i, label %19, label %.thread.i, !prof !17

19:                                               ; preds = %.preheader.i
  %20 = extractvalue { i8, i32 } %16, 1
  %21 = icmp eq i32 %20, 0
  br i1 %21, label %.thread.i, label %.preheader.i, !llvm.loop !21

.thread.i:                                        ; preds = %19, %.preheader.i, %.preheader6.i
  %22 = phi i32 [ 0, %.preheader6.i ], [ 0, %19 ], [ %14, %.preheader.i ]
  %23 = add i32 %22, 1
  %24 = or i32 %23, %22
  %25 = icmp sgt i32 %24, -1
  br i1 %25, label %27, label %26, !prof !7

26:                                               ; preds = %.thread.i
  tail call void @refcount_warn_saturate(ptr noundef %11, i32 noundef 0) #17
  br label %27

27:                                               ; preds = %26, %.thread.i
  %28 = icmp eq i32 %22, 0
  br i1 %28, label %.thread5.i, label %29

29:                                               ; preds = %27
  %30 = getelementptr i8, ptr %10, i64 16
  %31 = load ptr, ptr %30, align 8
  %32 = icmp eq ptr %31, null
  br i1 %32, label %36, label %io_wq_worker_affinity.exit

io_wq_worker_affinity.exit:                       ; preds = %29
  %33 = getelementptr i8, ptr %10, i64 24
  %34 = load ptr, ptr %33, align 8
  %35 = getelementptr inbounds i8, ptr %34, i64 776
  tail call void asm sideeffect ".pushsection .smp_locks,\22a\22\0A.balign 4\0A.long 671f - .\0A.popsection\0A671:\0A\09lock;  btrq  $1,$0", "*m,Ir,~{memory},~{dirflag},~{fpsr},~{flags}"(ptr elementtype(i64) %35, i64 %9) #17, !srcloc !58
  br label %36

36:                                               ; preds = %io_wq_worker_affinity.exit, %29
  %37 = tail call i32 asm sideeffect ".pushsection .smp_locks,\22a\22\0A.balign 4\0A.long 671f - .\0A.popsection\0A671:\0A\09lock; xaddl $0, $1\0A", "=r,=*m,0,*m,~{memory},~{cc},~{dirflag},~{fpsr},~{flags}"(ptr elementtype(i32) %11, i32 -1, ptr elementtype(i32) %11) #17, !srcloc !22
  %38 = icmp eq i32 %37, 1
  br i1 %38, label %42, label %39

39:                                               ; preds = %36
  %40 = icmp sgt i32 %37, 0
  br i1 %40, label %.thread5.i, label %41, !prof !7

41:                                               ; preds = %39
  tail call void @refcount_warn_saturate(ptr noundef %11, i32 noundef 3) #17
  br label %.thread5.i

42:                                               ; preds = %36
  tail call void asm sideeffect "", "~{memory},~{dirflag},~{fpsr},~{flags}"() #17, !srcloc !23
  %43 = getelementptr i8, ptr %10, i64 56
  tail call void @complete(ptr noundef %43) #17
  br label %.thread5.i

.thread5.i:                                       ; preds = %39, %41, %42, %27
  %44 = load volatile ptr, ptr %10, align 8
  %45 = icmp eq ptr %44, %6
  br i1 %45, label %io_wq_for_each_worker.exit, label %.preheader6.i, !llvm.loop !61

io_wq_for_each_worker.exit:                       ; preds = %.thread5.i, %2
  tail call void @__rcu_read_unlock() #17
  ret i32 0
}